CCS PCH C Compiler, Version 3.190, 23458

               Filename: C:\Users\User\Documents\Azaa_1\TURSHILT\6san1000.LST

               ROM used: 2648 (8%)
                         Largest free fragment is 2648
               RAM used: 81 (5%) at main() level
                         85 (6%) worst case
               Stack:    2 worst case (1 in main + 1 for interrupts)

*
0000:  GOTO   0174
*
0008:  NOP(FFFF)
000A:  MOVWF  05
000C:  MOVFF  FD8,06
0010:  MOVF   FE9,W
0012:  MOVWF  07
0014:  MOVF   FEA,W
0016:  MOVWF  08
0018:  MOVF   FE1,W
001A:  MOVWF  09
001C:  MOVF   FE2,W
001E:  MOVWF  0A
0020:  MOVF   FD9,W
0022:  MOVWF  0B
0024:  MOVF   FDA,W
0026:  MOVWF  0C
0028:  MOVF   FF3,W
002A:  MOVWF  14
002C:  MOVF   FF4,W
002E:  MOVWF  15
0030:  MOVF   FE0,W
0032:  MOVWF  0D
0034:  MOVLB  0
0036:  MOVF   00,W
0038:  MOVWF  0F
003A:  MOVF   01,W
003C:  MOVWF  10
003E:  MOVF   02,W
0040:  MOVWF  11
0042:  MOVF   03,W
0044:  MOVWF  12
0046:  MOVF   04,W
0048:  MOVWF  13
004A:  BTFSS  F9D.5
004C:  GOTO   0056
0050:  BTFSC  F9E.5
0052:  GOTO   0098
0056:  MOVF   0F,W
0058:  MOVWF  00
005A:  MOVF   10,W
005C:  MOVWF  01
005E:  MOVF   11,W
0060:  MOVWF  02
0062:  MOVF   12,W
0064:  MOVWF  03
0066:  MOVF   13,W
0068:  MOVWF  04
006A:  MOVF   0D,W
006C:  MOVWF  FE0
006E:  BSF    0D.7
0070:  MOVF   07,W
0072:  MOVWF  FE9
0074:  MOVF   08,W
0076:  MOVWF  FEA
0078:  MOVF   09,W
007A:  MOVWF  FE1
007C:  MOVF   0A,W
007E:  MOVWF  FE2
0080:  MOVF   0B,W
0082:  MOVWF  FD9
0084:  MOVF   0C,W
0086:  MOVWF  FDA
0088:  MOVF   14,W
008A:  MOVWF  FF3
008C:  MOVF   15,W
008E:  MOVWF  FF4
0090:  MOVF   05,W
0092:  MOVFF  06,FD8
0096:  RETFIE 0
....................  #include "C:\Users\User\Documents\Azaa_1\TURSHILT\6san1000.h" 
....................  #include <18F452.h> 
....................  //////// Standard Header file for the PIC18F452 device ////////////////  
.................... #device PIC18F452  
.................... #list  
....................  
.................... #device adc=8  
.................... #use delay(clock=20000000)  
*
00BA:  CLRF   FEA
00BC:  MOVLW  51
00BE:  MOVWF  FE9
00C0:  MOVF   FEF,W
00C2:  BTFSC  FD8.2
00C4:  GOTO   00E2
00C8:  MOVLW  06
00CA:  MOVWF  01
00CC:  CLRF   00
00CE:  DECFSZ 00,F
00D0:  BRA    00CE
00D2:  DECFSZ 01,F
00D4:  BRA    00CC
00D6:  MOVLW  7B
00D8:  MOVWF  00
00DA:  DECFSZ 00,F
00DC:  BRA    00DA
00DE:  DECFSZ FEF,F
00E0:  BRA    00C8
00E2:  RETLW  00
00E4:  NOP(FFFF)
.................... #fuses NOWDT,WDT128,HS, NOPROTECT, NOOSCSEN, BROWNOUT, BORV20, NOPUT, STVREN, NODEBUG, NOLVP, NOWRT, NOWRTD, NOWRTB, NOWRTC, NOCPD, NOCPB, NOEBTR, NOEBTRB  
*
00B8:  NOP(FFFF)
.................... #use rs232(baud=9600,parity=N,xmit=PIN_C6,rcv=PIN_C7,bits=8)  
....................   
....................  
....................   
....................   
....................   
.................... #byte port_d   =  0x0f83  
.................... #byte port_a   =  0x0f80  
.................... #byte port_e   =  0x0f84  
.................... #byte port_b   =  0x0f81  
....................   
....................   
.................... int8 temp,i=0,a0,a1,a2,a3,a4,a5,a6,a7,a8;  
.................... int8 data[20],numb[10]={0x30,0x31,0x32,0x33,0x34,0x35,0x36,0x37,0x38,0x39};  
.................... int8 n1,n2,n3,tmp,rh,p1,p2,h1,smoke,blok,dundaj=0,j=0;  
.................... int16 r0=0,r10=0;  
....................   
....................   
....................   
....................   
.................... #int_RDA  
.................... RDA_isr()  
.................... {  
*
0098:  NOP(FFFF)
.................... temp=getc();  
009A:  BTFSS  F9E.5
009C:  GOTO   009A
00A0:  MOVF   FAE,W
00A2:  MOVWF  17
.................... if(temp=='y'){j=1;}  
00A4:  MOVF   17,W
00A6:  SUBLW  79
00A8:  BTFSS  FD8.2
00AA:  GOTO   00B2
00AE:  MOVLW  01
00B0:  MOVWF  4B
.................... }  
....................   
....................   
....................   
00B2:  BCF    F9E.5
00B4:  GOTO   0056
.................... void main()  
.................... {  
*
0174:  NOP(FFFF)
0176:  CLRF   FF8
0178:  BCF    FD0.7
017A:  BSF    0D.7
017C:  CLRF   FEA
017E:  CLRF   FE9
0180:  MOVLW  06
0182:  MOVWF  FC1
0184:  MOVLW  81
0186:  MOVWF  FAF
0188:  MOVLW  26
018A:  MOVWF  FAC
018C:  MOVLW  90
018E:  MOVWF  FAB
0190:  CLRF   18
0192:  MOVLW  30
0194:  MOVWF  36
0196:  MOVLW  31
0198:  MOVWF  37
019A:  MOVLW  32
019C:  MOVWF  38
019E:  MOVLW  33
01A0:  MOVWF  39
01A2:  MOVLW  34
01A4:  MOVWF  3A
01A6:  MOVLW  35
01A8:  MOVWF  3B
01AA:  MOVLW  36
01AC:  MOVWF  3C
01AE:  MOVLW  37
01B0:  MOVWF  3D
01B2:  MOVLW  38
01B4:  MOVWF  3E
01B6:  MOVLW  39
01B8:  MOVWF  3F
01BA:  CLRF   4A
01BC:  CLRF   4B
01BE:  CLRF   4C
01C0:  CLRF   4D
01C2:  CLRF   4E
01C4:  CLRF   4F
....................   
....................    setup_adc_ports(ALL_ANALOG);  
01C6:  CLRF   FC1
....................    setup_adc(ADC_CLOCK_INTERNAL);  
01C8:  BCF    FC1.6
01CA:  MOVF   FC2,W
01CC:  ANDLW  38
01CE:  IORLW  C1
01D0:  MOVWF  FC2
....................    setup_psp(PSP_DISABLED);  
01D2:  BCF    F96.4
....................    setup_spi(FALSE);  
01D4:  BCF    FC6.5
01D6:  BCF    F94.5
01D8:  BSF    F94.4
01DA:  BCF    F94.3
01DC:  MOVLW  00
01DE:  MOVWF  FC6
01E0:  MOVWF  FC7
....................    setup_wdt(WDT_OFF);  
01E2:  BCF    FD1.0
....................    setup_timer_0(RTCC_INTERNAL);  
01E4:  MOVLW  80
01E6:  MOVWF  FD5
....................    setup_timer_1(T1_DISABLED);  
01E8:  CLRF   FCD
....................    setup_timer_2(T2_DISABLED,0,1);  
01EA:  MOVLW  00
01EC:  MOVWF  01
01EE:  MOVWF  FCA
01F0:  MOVLW  00
01F2:  MOVWF  FCB
....................    setup_timer_3(T3_DISABLED|T3_DIV_BY_1);  
01F4:  MOVF   FB1,W
01F6:  ANDLW  48
01F8:  MOVWF  FB1
....................    enable_interrupts(INT_RDA);  
01FA:  BSF    F9D.5
....................    enable_interrupts(GLOBAL);  
01FC:  MOVLW  C0
01FE:  IORWF  FF2,F
.................... set_tris_c(0x80);  
0200:  MOVLW  80
0202:  MOVWF  F94
.................... set_tris_d(0x00);  
0204:  MOVLW  00
0206:  MOVWF  F95
.................... set_tris_a(0xff);  
0208:  MOVLW  FF
020A:  MOVWF  F92
.................... set_tris_e(0xff);  
020C:  BSF    F96.0
020E:  BSF    F96.1
0210:  BSF    F96.2
.................... set_tris_b(0xff);  
0212:  MOVWF  F93
.................... port_d=0;  
0214:  CLRF   F83
.................... port_a=0;  
0216:  CLRF   F80
.................... port_e=0;  
0218:  CLRF   F84
.................... port_b=0;  
021A:  CLRF   F81
....................   
.................... for(;;){  
.................... for(r10=0;r10<350;r10++){  
021C:  CLRF   4F
021E:  CLRF   4E
0220:  MOVF   4F,W
0222:  SUBLW  01
0224:  BTFSS  FD8.0
0226:  GOTO   0A54
022A:  BTFSS  FD8.2
022C:  GOTO   023A
0230:  MOVF   4E,W
0232:  SUBLW  5D
0234:  BTFSS  FD8.0
0236:  GOTO   0A54
.................... port_d=0;  
023A:  CLRF   F83
....................   
....................    for(i=0;i<=19;i++){  
023C:  CLRF   18
023E:  MOVF   18,W
0240:  SUBLW  13
0242:  BTFSS  FD8.0
0244:  GOTO   0276
....................    set_adc_channel(0);  
0248:  MOVLW  00
024A:  MOVWF  01
024C:  MOVF   FC2,W
024E:  ANDLW  C7
0250:  IORWF  01,W
0252:  MOVWF  FC2
....................    delay_ms(10);  
0254:  MOVLW  0A
0256:  MOVWF  51
0258:  CALL   00B8
....................    a0=read_adc();  
025C:  BSF    FC2.2
025E:  BTFSC  FC2.2
0260:  GOTO   025E
0264:  MOVF   FC4,W
0266:  MOVWF  19
....................    r0=r0+a0;  
0268:  MOVF   19,W
026A:  ADDWF  4C,F
026C:  MOVLW  00
026E:  ADDWFC 4D,F
....................    }  
0270:  INCF   18,F
0272:  GOTO   023E
....................    a0=r0/20;  
0276:  MOVFF  4D,51
027A:  MOVFF  4C,50
027E:  CLRF   53
0280:  MOVLW  14
0282:  MOVWF  52
0284:  CALL   00E6
0288:  MOVFF  01,19
....................    r0=0;  
028C:  CLRF   4D
028E:  CLRF   4C
....................   
....................    for(i=0;i<=19;i++){  
0290:  CLRF   18
0292:  MOVF   18,W
0294:  SUBLW  13
0296:  BTFSS  FD8.0
0298:  GOTO   02CA
....................    set_adc_channel(1);  
029C:  MOVLW  08
029E:  MOVWF  01
02A0:  MOVF   FC2,W
02A2:  ANDLW  C7
02A4:  IORWF  01,W
02A6:  MOVWF  FC2
....................    delay_ms(10);  
02A8:  MOVLW  0A
02AA:  MOVWF  51
02AC:  CALL   00B8
....................    a1=read_adc();  
02B0:  BSF    FC2.2
02B2:  BTFSC  FC2.2
02B4:  GOTO   02B2
02B8:  MOVF   FC4,W
02BA:  MOVWF  1A
....................    r0=r0+a1;  
02BC:  MOVF   1A,W
02BE:  ADDWF  4C,F
02C0:  MOVLW  00
02C2:  ADDWFC 4D,F
....................    }  
02C4:  INCF   18,F
02C6:  GOTO   0292
....................    a1=r0/20;  
02CA:  MOVFF  4D,51
02CE:  MOVFF  4C,50
02D2:  CLRF   53
02D4:  MOVLW  14
02D6:  MOVWF  52
02D8:  CALL   00E6
02DC:  MOVFF  01,1A
....................    r0=0;  
02E0:  CLRF   4D
02E2:  CLRF   4C
....................   
.................... for(i=0;i<=19;i++){  
02E4:  CLRF   18
02E6:  MOVF   18,W
02E8:  SUBLW  13
02EA:  BTFSS  FD8.0
02EC:  GOTO   031E
....................   
....................    set_adc_channel(2);  
02F0:  MOVLW  10
02F2:  MOVWF  01
02F4:  MOVF   FC2,W
02F6:  ANDLW  C7
02F8:  IORWF  01,W
02FA:  MOVWF  FC2
.................... delay_ms(10);  
02FC:  MOVLW  0A
02FE:  MOVWF  51
0300:  CALL   00B8
.................... a2=read_adc();  
0304:  BSF    FC2.2
0306:  BTFSC  FC2.2
0308:  GOTO   0306
030C:  MOVF   FC4,W
030E:  MOVWF  1B
.................... r0=r0+a2;  
0310:  MOVF   1B,W
0312:  ADDWF  4C,F
0314:  MOVLW  00
0316:  ADDWFC 4D,F
.................... }  
0318:  INCF   18,F
031A:  GOTO   02E6
.................... a2=r0/20;  
031E:  MOVFF  4D,51
0322:  MOVFF  4C,50
0326:  CLRF   53
0328:  MOVLW  14
032A:  MOVWF  52
032C:  CALL   00E6
0330:  MOVFF  01,1B
.................... r0=0;  
0334:  CLRF   4D
0336:  CLRF   4C
....................   
.................... for(i=0;i<=19;i++){  
0338:  CLRF   18
033A:  MOVF   18,W
033C:  SUBLW  13
033E:  BTFSS  FD8.0
0340:  GOTO   0372
.................... set_adc_channel(3);  
0344:  MOVLW  18
0346:  MOVWF  01
0348:  MOVF   FC2,W
034A:  ANDLW  C7
034C:  IORWF  01,W
034E:  MOVWF  FC2
.................... delay_ms(10);  
0350:  MOVLW  0A
0352:  MOVWF  51
0354:  CALL   00B8
.................... a3=read_adc();  
0358:  BSF    FC2.2
035A:  BTFSC  FC2.2
035C:  GOTO   035A
0360:  MOVF   FC4,W
0362:  MOVWF  1C
.................... r0=r0+a3;  
0364:  MOVF   1C,W
0366:  ADDWF  4C,F
0368:  MOVLW  00
036A:  ADDWFC 4D,F
.................... }  
036C:  INCF   18,F
036E:  GOTO   033A
.................... a3=r0/20;  
0372:  MOVFF  4D,51
0376:  MOVFF  4C,50
037A:  CLRF   53
037C:  MOVLW  14
037E:  MOVWF  52
0380:  CALL   00E6
0384:  MOVFF  01,1C
.................... r0=0;  
0388:  CLRF   4D
038A:  CLRF   4C
....................   
....................   
.................... for(i=0;i<=19;i++){  
038C:  CLRF   18
038E:  MOVF   18,W
0390:  SUBLW  13
0392:  BTFSS  FD8.0
0394:  GOTO   03C6
.................... set_adc_channel(4);  
0398:  MOVLW  20
039A:  MOVWF  01
039C:  MOVF   FC2,W
039E:  ANDLW  C7
03A0:  IORWF  01,W
03A2:  MOVWF  FC2
.................... delay_ms(10);  
03A4:  MOVLW  0A
03A6:  MOVWF  51
03A8:  CALL   00B8
.................... a4=read_adc();  
03AC:  BSF    FC2.2
03AE:  BTFSC  FC2.2
03B0:  GOTO   03AE
03B4:  MOVF   FC4,W
03B6:  MOVWF  1D
.................... r0=r0+a4;  
03B8:  MOVF   1D,W
03BA:  ADDWF  4C,F
03BC:  MOVLW  00
03BE:  ADDWFC 4D,F
.................... }  
03C0:  INCF   18,F
03C2:  GOTO   038E
.................... a4=r0/20;  
03C6:  MOVFF  4D,51
03CA:  MOVFF  4C,50
03CE:  CLRF   53
03D0:  MOVLW  14
03D2:  MOVWF  52
03D4:  CALL   00E6
03D8:  MOVFF  01,1D
.................... r0=0;  
03DC:  CLRF   4D
03DE:  CLRF   4C
....................   
.................... for(i=0;i<=19;i++){  
03E0:  CLRF   18
03E2:  MOVF   18,W
03E4:  SUBLW  13
03E6:  BTFSS  FD8.0
03E8:  GOTO   041A
.................... set_adc_channel(5);  
03EC:  MOVLW  28
03EE:  MOVWF  01
03F0:  MOVF   FC2,W
03F2:  ANDLW  C7
03F4:  IORWF  01,W
03F6:  MOVWF  FC2
.................... delay_ms(10);  
03F8:  MOVLW  0A
03FA:  MOVWF  51
03FC:  CALL   00B8
.................... a5=read_adc();  
0400:  BSF    FC2.2
0402:  BTFSC  FC2.2
0404:  GOTO   0402
0408:  MOVF   FC4,W
040A:  MOVWF  1E
.................... r0=r0+a5;  
040C:  MOVF   1E,W
040E:  ADDWF  4C,F
0410:  MOVLW  00
0412:  ADDWFC 4D,F
.................... }  
0414:  INCF   18,F
0416:  GOTO   03E2
.................... a5=r0/20;  
041A:  MOVFF  4D,51
041E:  MOVFF  4C,50
0422:  CLRF   53
0424:  MOVLW  14
0426:  MOVWF  52
0428:  CALL   00E6
042C:  MOVFF  01,1E
.................... r0=0;  
0430:  CLRF   4D
0432:  CLRF   4C
....................   
.................... for(i=0;i<=19;i++){  
0434:  CLRF   18
0436:  MOVF   18,W
0438:  SUBLW  13
043A:  BTFSS  FD8.0
043C:  GOTO   046E
.................... set_adc_channel(6);  
0440:  MOVLW  30
0442:  MOVWF  01
0444:  MOVF   FC2,W
0446:  ANDLW  C7
0448:  IORWF  01,W
044A:  MOVWF  FC2
.................... delay_ms(10);  
044C:  MOVLW  0A
044E:  MOVWF  51
0450:  CALL   00B8
.................... a6=read_adc();  
0454:  BSF    FC2.2
0456:  BTFSC  FC2.2
0458:  GOTO   0456
045C:  MOVF   FC4,W
045E:  MOVWF  1F
.................... r0=r0+a6;  
0460:  MOVF   1F,W
0462:  ADDWF  4C,F
0464:  MOVLW  00
0466:  ADDWFC 4D,F
.................... }  
0468:  INCF   18,F
046A:  GOTO   0436
.................... a6=r0/20;  
046E:  MOVFF  4D,51
0472:  MOVFF  4C,50
0476:  CLRF   53
0478:  MOVLW  14
047A:  MOVWF  52
047C:  CALL   00E6
0480:  MOVFF  01,1F
.................... r0=0;  
0484:  CLRF   4D
0486:  CLRF   4C
....................   
....................   
.................... for(i=0;i<=19;i++){  
0488:  CLRF   18
048A:  MOVF   18,W
048C:  SUBLW  13
048E:  BTFSS  FD8.0
0490:  GOTO   04C2
.................... set_adc_channel(7);  
0494:  MOVLW  38
0496:  MOVWF  01
0498:  MOVF   FC2,W
049A:  ANDLW  C7
049C:  IORWF  01,W
049E:  MOVWF  FC2
.................... delay_ms(10);  
04A0:  MOVLW  0A
04A2:  MOVWF  51
04A4:  CALL   00B8
.................... a7=read_adc();  
04A8:  BSF    FC2.2
04AA:  BTFSC  FC2.2
04AC:  GOTO   04AA
04B0:  MOVF   FC4,W
04B2:  MOVWF  20
.................... r0=r0+a7;  
04B4:  MOVF   20,W
04B6:  ADDWF  4C,F
04B8:  MOVLW  00
04BA:  ADDWFC 4D,F
.................... }  
04BC:  INCF   18,F
04BE:  GOTO   048A
.................... a7=r0/20;  
04C2:  MOVFF  4D,51
04C6:  MOVFF  4C,50
04CA:  CLRF   53
04CC:  MOVLW  14
04CE:  MOVWF  52
04D0:  CALL   00E6
04D4:  MOVFF  01,20
.................... r0=0;  
04D8:  CLRF   4D
04DA:  CLRF   4C
....................   
....................   
.................... //temperature  
.................... n1=a0/100;  
04DC:  MOVFF  19,50
04E0:  MOVLW  64
04E2:  MOVWF  51
04E4:  CALL   0140
04E8:  MOVFF  01,40
.................... n2=a0/10;  
04EC:  MOVFF  19,50
04F0:  MOVLW  0A
04F2:  MOVWF  51
04F4:  CALL   0140
04F8:  MOVFF  01,41
.................... n2=n2%10;  
04FC:  MOVFF  41,50
0500:  MOVLW  0A
0502:  MOVWF  51
0504:  CALL   0140
0508:  MOVFF  00,41
.................... n3=a0%10;  
050C:  MOVFF  19,50
0510:  MOVLW  0A
0512:  MOVWF  51
0514:  CALL   0140
0518:  MOVFF  00,42
....................   
.................... n1=numb[n1];n2=numb[n2];n3=numb[n3];  
051C:  CLRF   03
051E:  MOVF   40,W
0520:  ADDLW  36
0522:  MOVWF  FE9
0524:  MOVLW  00
0526:  ADDWFC 03,W
0528:  MOVWF  FEA
052A:  MOVF   FEF,W
052C:  MOVWF  40
052E:  CLRF   03
0530:  MOVF   41,W
0532:  ADDLW  36
0534:  MOVWF  FE9
0536:  MOVLW  00
0538:  ADDWFC 03,W
053A:  MOVWF  FEA
053C:  MOVF   FEF,W
053E:  MOVWF  41
0540:  CLRF   03
0542:  MOVF   42,W
0544:  ADDLW  36
0546:  MOVWF  FE9
0548:  MOVLW  00
054A:  ADDWFC 03,W
054C:  MOVWF  FEA
054E:  MOVF   FEF,W
0550:  MOVWF  42
....................   
.................... putc('m');putc('y');putc('n');putc('g');putc(':');  
0552:  MOVLW  6D
0554:  BTFSS  F9E.4
0556:  GOTO   0554
055A:  MOVWF  FAD
055C:  MOVLW  79
055E:  BTFSS  F9E.4
0560:  GOTO   055E
0564:  MOVWF  FAD
0566:  MOVLW  6E
0568:  BTFSS  F9E.4
056A:  GOTO   0568
056E:  MOVWF  FAD
0570:  MOVLW  67
0572:  BTFSS  F9E.4
0574:  GOTO   0572
0578:  MOVWF  FAD
057A:  MOVLW  3A
057C:  BTFSS  F9E.4
057E:  GOTO   057C
0582:  MOVWF  FAD
.................... putc(n1);putc(n2);putc(n3);putc(':');  
0584:  MOVF   40,W
0586:  BTFSS  F9E.4
0588:  GOTO   0586
058C:  MOVWF  FAD
058E:  MOVF   41,W
0590:  BTFSS  F9E.4
0592:  GOTO   0590
0596:  MOVWF  FAD
0598:  MOVF   42,W
059A:  BTFSS  F9E.4
059C:  GOTO   059A
05A0:  MOVWF  FAD
05A2:  MOVLW  3A
05A4:  BTFSS  F9E.4
05A6:  GOTO   05A4
05AA:  MOVWF  FAD
....................   
....................   
.................... //rh  
.................... n1=a1/100;  
05AC:  MOVFF  1A,50
05B0:  MOVLW  64
05B2:  MOVWF  51
05B4:  CALL   0140
05B8:  MOVFF  01,40
.................... n2=a1/10;  
05BC:  MOVFF  1A,50
05C0:  MOVLW  0A
05C2:  MOVWF  51
05C4:  CALL   0140
05C8:  MOVFF  01,41
.................... n2=n2%10;  
05CC:  MOVFF  41,50
05D0:  MOVLW  0A
05D2:  MOVWF  51
05D4:  CALL   0140
05D8:  MOVFF  00,41
.................... n3=a1%10;  
05DC:  MOVFF  1A,50
05E0:  MOVLW  0A
05E2:  MOVWF  51
05E4:  CALL   0140
05E8:  MOVFF  00,42
....................   
.................... n1=numb[n1];n2=numb[n2];n3=numb[n3];  
05EC:  CLRF   03
05EE:  MOVF   40,W
05F0:  ADDLW  36
05F2:  MOVWF  FE9
05F4:  MOVLW  00
05F6:  ADDWFC 03,W
05F8:  MOVWF  FEA
05FA:  MOVF   FEF,W
05FC:  MOVWF  40
05FE:  CLRF   03
0600:  MOVF   41,W
0602:  ADDLW  36
0604:  MOVWF  FE9
0606:  MOVLW  00
0608:  ADDWFC 03,W
060A:  MOVWF  FEA
060C:  MOVF   FEF,W
060E:  MOVWF  41
0610:  CLRF   03
0612:  MOVF   42,W
0614:  ADDLW  36
0616:  MOVWF  FE9
0618:  MOVLW  00
061A:  ADDWFC 03,W
061C:  MOVWF  FEA
061E:  MOVF   FEF,W
0620:  MOVWF  42
.................... putc(n1);putc(n2);putc(n3);delay_ms(10);putc(':');  
0622:  MOVF   40,W
0624:  BTFSS  F9E.4
0626:  GOTO   0624
062A:  MOVWF  FAD
062C:  MOVF   41,W
062E:  BTFSS  F9E.4
0630:  GOTO   062E
0634:  MOVWF  FAD
0636:  MOVF   42,W
0638:  BTFSS  F9E.4
063A:  GOTO   0638
063E:  MOVWF  FAD
0640:  MOVLW  0A
0642:  MOVWF  51
0644:  CALL   00B8
0648:  MOVLW  3A
064A:  BTFSS  F9E.4
064C:  GOTO   064A
0650:  MOVWF  FAD
.................... delay_ms(20);  
0652:  MOVLW  14
0654:  MOVWF  51
0656:  CALL   00B8
....................   
.................... //smoke  
.................... n1=a2/100;  
065A:  MOVFF  1B,50
065E:  MOVLW  64
0660:  MOVWF  51
0662:  CALL   0140
0666:  MOVFF  01,40
.................... n2=a2/10;  
066A:  MOVFF  1B,50
066E:  MOVLW  0A
0670:  MOVWF  51
0672:  CALL   0140
0676:  MOVFF  01,41
.................... n2=n2%10;  
067A:  MOVFF  41,50
067E:  MOVLW  0A
0680:  MOVWF  51
0682:  CALL   0140
0686:  MOVFF  00,41
.................... n3=a2%10;  
068A:  MOVFF  1B,50
068E:  MOVLW  0A
0690:  MOVWF  51
0692:  CALL   0140
0696:  MOVFF  00,42
....................   
.................... delay_ms(20);  
069A:  MOVLW  14
069C:  MOVWF  51
069E:  CALL   00B8
.................... n1=numb[n1];delay_ms(10);n2=numb[n2];n3=numb[n3];  
06A2:  CLRF   03
06A4:  MOVF   40,W
06A6:  ADDLW  36
06A8:  MOVWF  FE9
06AA:  MOVLW  00
06AC:  ADDWFC 03,W
06AE:  MOVWF  FEA
06B0:  MOVF   FEF,W
06B2:  MOVWF  40
06B4:  MOVLW  0A
06B6:  MOVWF  51
06B8:  CALL   00B8
06BC:  CLRF   03
06BE:  MOVF   41,W
06C0:  ADDLW  36
06C2:  MOVWF  FE9
06C4:  MOVLW  00
06C6:  ADDWFC 03,W
06C8:  MOVWF  FEA
06CA:  MOVF   FEF,W
06CC:  MOVWF  41
06CE:  CLRF   03
06D0:  MOVF   42,W
06D2:  ADDLW  36
06D4:  MOVWF  FE9
06D6:  MOVLW  00
06D8:  ADDWFC 03,W
06DA:  MOVWF  FEA
06DC:  MOVF   FEF,W
06DE:  MOVWF  42
.................... putc(n1);putc(n2);putc(n3);putc(':');  
06E0:  MOVF   40,W
06E2:  BTFSS  F9E.4
06E4:  GOTO   06E2
06E8:  MOVWF  FAD
06EA:  MOVF   41,W
06EC:  BTFSS  F9E.4
06EE:  GOTO   06EC
06F2:  MOVWF  FAD
06F4:  MOVF   42,W
06F6:  BTFSS  F9E.4
06F8:  GOTO   06F6
06FC:  MOVWF  FAD
06FE:  MOVLW  3A
0700:  BTFSS  F9E.4
0702:  GOTO   0700
0706:  MOVWF  FAD
....................   
.................... //h1  
.................... n1=a3/100;  
0708:  MOVFF  1C,50
070C:  MOVLW  64
070E:  MOVWF  51
0710:  CALL   0140
0714:  MOVFF  01,40
.................... n2=a3/10;  
0718:  MOVFF  1C,50
071C:  MOVLW  0A
071E:  MOVWF  51
0720:  CALL   0140
0724:  MOVFF  01,41
.................... n2=n2%10;  
0728:  MOVFF  41,50
072C:  MOVLW  0A
072E:  MOVWF  51
0730:  CALL   0140
0734:  MOVFF  00,41
.................... n3=a3%10;  
0738:  MOVFF  1C,50
073C:  MOVLW  0A
073E:  MOVWF  51
0740:  CALL   0140
0744:  MOVFF  00,42
....................   
....................   
.................... n1=numb[n1];n2=numb[n2];n3=numb[n3];  
0748:  CLRF   03
074A:  MOVF   40,W
074C:  ADDLW  36
074E:  MOVWF  FE9
0750:  MOVLW  00
0752:  ADDWFC 03,W
0754:  MOVWF  FEA
0756:  MOVF   FEF,W
0758:  MOVWF  40
075A:  CLRF   03
075C:  MOVF   41,W
075E:  ADDLW  36
0760:  MOVWF  FE9
0762:  MOVLW  00
0764:  ADDWFC 03,W
0766:  MOVWF  FEA
0768:  MOVF   FEF,W
076A:  MOVWF  41
076C:  CLRF   03
076E:  MOVF   42,W
0770:  ADDLW  36
0772:  MOVWF  FE9
0774:  MOVLW  00
0776:  ADDWFC 03,W
0778:  MOVWF  FEA
077A:  MOVF   FEF,W
077C:  MOVWF  42
.................... putc(n1);putc(n2);putc(n3);putc(':');  
077E:  MOVF   40,W
0780:  BTFSS  F9E.4
0782:  GOTO   0780
0786:  MOVWF  FAD
0788:  MOVF   41,W
078A:  BTFSS  F9E.4
078C:  GOTO   078A
0790:  MOVWF  FAD
0792:  MOVF   42,W
0794:  BTFSS  F9E.4
0796:  GOTO   0794
079A:  MOVWF  FAD
079C:  MOVLW  3A
079E:  BTFSS  F9E.4
07A0:  GOTO   079E
07A4:  MOVWF  FAD
....................   
.................... //h2  
.................... n1=a4/100;  
07A6:  MOVFF  1D,50
07AA:  MOVLW  64
07AC:  MOVWF  51
07AE:  CALL   0140
07B2:  MOVFF  01,40
.................... n2=a4/10;  
07B6:  MOVFF  1D,50
07BA:  MOVLW  0A
07BC:  MOVWF  51
07BE:  CALL   0140
07C2:  MOVFF  01,41
.................... n2=n2%10;  
07C6:  MOVFF  41,50
07CA:  MOVLW  0A
07CC:  MOVWF  51
07CE:  CALL   0140
07D2:  MOVFF  00,41
.................... n3=a4%10;  
07D6:  MOVFF  1D,50
07DA:  MOVLW  0A
07DC:  MOVWF  51
07DE:  CALL   0140
07E2:  MOVFF  00,42
....................   
.................... n1=numb[n1];n2=numb[n2];n3=numb[n3];  
07E6:  CLRF   03
07E8:  MOVF   40,W
07EA:  ADDLW  36
07EC:  MOVWF  FE9
07EE:  MOVLW  00
07F0:  ADDWFC 03,W
07F2:  MOVWF  FEA
07F4:  MOVF   FEF,W
07F6:  MOVWF  40
07F8:  CLRF   03
07FA:  MOVF   41,W
07FC:  ADDLW  36
07FE:  MOVWF  FE9
0800:  MOVLW  00
0802:  ADDWFC 03,W
0804:  MOVWF  FEA
0806:  MOVF   FEF,W
0808:  MOVWF  41
080A:  CLRF   03
080C:  MOVF   42,W
080E:  ADDLW  36
0810:  MOVWF  FE9
0812:  MOVLW  00
0814:  ADDWFC 03,W
0816:  MOVWF  FEA
0818:  MOVF   FEF,W
081A:  MOVWF  42
.................... putc(n1);putc(n2);putc(n3);putc(':');  
081C:  MOVF   40,W
081E:  BTFSS  F9E.4
0820:  GOTO   081E
0824:  MOVWF  FAD
0826:  MOVF   41,W
0828:  BTFSS  F9E.4
082A:  GOTO   0828
082E:  MOVWF  FAD
0830:  MOVF   42,W
0832:  BTFSS  F9E.4
0834:  GOTO   0832
0838:  MOVWF  FAD
083A:  MOVLW  3A
083C:  BTFSS  F9E.4
083E:  GOTO   083C
0842:  MOVWF  FAD
....................   
.................... //dorgio1  
.................... n1=a5/100;  
0844:  MOVFF  1E,50
0848:  MOVLW  64
084A:  MOVWF  51
084C:  CALL   0140
0850:  MOVFF  01,40
.................... n2=a5/10;  
0854:  MOVFF  1E,50
0858:  MOVLW  0A
085A:  MOVWF  51
085C:  CALL   0140
0860:  MOVFF  01,41
.................... n2=n2%10;  
0864:  MOVFF  41,50
0868:  MOVLW  0A
086A:  MOVWF  51
086C:  CALL   0140
0870:  MOVFF  00,41
.................... n3=a5%10;  
0874:  MOVFF  1E,50
0878:  MOVLW  0A
087A:  MOVWF  51
087C:  CALL   0140
0880:  MOVFF  00,42
....................   
.................... n1=numb[n1];n2=numb[n2];n3=numb[n3];  
0884:  CLRF   03
0886:  MOVF   40,W
0888:  ADDLW  36
088A:  MOVWF  FE9
088C:  MOVLW  00
088E:  ADDWFC 03,W
0890:  MOVWF  FEA
0892:  MOVF   FEF,W
0894:  MOVWF  40
0896:  CLRF   03
0898:  MOVF   41,W
089A:  ADDLW  36
089C:  MOVWF  FE9
089E:  MOVLW  00
08A0:  ADDWFC 03,W
08A2:  MOVWF  FEA
08A4:  MOVF   FEF,W
08A6:  MOVWF  41
08A8:  CLRF   03
08AA:  MOVF   42,W
08AC:  ADDLW  36
08AE:  MOVWF  FE9
08B0:  MOVLW  00
08B2:  ADDWFC 03,W
08B4:  MOVWF  FEA
08B6:  MOVF   FEF,W
08B8:  MOVWF  42
.................... putc(n1);putc(n2);putc(n3);putc(':');  
08BA:  MOVF   40,W
08BC:  BTFSS  F9E.4
08BE:  GOTO   08BC
08C2:  MOVWF  FAD
08C4:  MOVF   41,W
08C6:  BTFSS  F9E.4
08C8:  GOTO   08C6
08CC:  MOVWF  FAD
08CE:  MOVF   42,W
08D0:  BTFSS  F9E.4
08D2:  GOTO   08D0
08D6:  MOVWF  FAD
08D8:  MOVLW  3A
08DA:  BTFSS  F9E.4
08DC:  GOTO   08DA
08E0:  MOVWF  FAD
....................   
.................... //dorgio2  
.................... n1=a6/100;  
08E2:  MOVFF  1F,50
08E6:  MOVLW  64
08E8:  MOVWF  51
08EA:  CALL   0140
08EE:  MOVFF  01,40
.................... n2=a6/10;  
08F2:  MOVFF  1F,50
08F6:  MOVLW  0A
08F8:  MOVWF  51
08FA:  CALL   0140
08FE:  MOVFF  01,41
.................... n2=n2%10;  
0902:  MOVFF  41,50
0906:  MOVLW  0A
0908:  MOVWF  51
090A:  CALL   0140
090E:  MOVFF  00,41
.................... n3=a6%10;  
0912:  MOVFF  1F,50
0916:  MOVLW  0A
0918:  MOVWF  51
091A:  CALL   0140
091E:  MOVFF  00,42
....................   
.................... n1=numb[n1];n2=numb[n2];n3=numb[n3];  
0922:  CLRF   03
0924:  MOVF   40,W
0926:  ADDLW  36
0928:  MOVWF  FE9
092A:  MOVLW  00
092C:  ADDWFC 03,W
092E:  MOVWF  FEA
0930:  MOVF   FEF,W
0932:  MOVWF  40
0934:  CLRF   03
0936:  MOVF   41,W
0938:  ADDLW  36
093A:  MOVWF  FE9
093C:  MOVLW  00
093E:  ADDWFC 03,W
0940:  MOVWF  FEA
0942:  MOVF   FEF,W
0944:  MOVWF  41
0946:  CLRF   03
0948:  MOVF   42,W
094A:  ADDLW  36
094C:  MOVWF  FE9
094E:  MOVLW  00
0950:  ADDWFC 03,W
0952:  MOVWF  FEA
0954:  MOVF   FEF,W
0956:  MOVWF  42
.................... putc(n1);putc(n2);putc(n3);putc(' ');  
0958:  MOVF   40,W
095A:  BTFSS  F9E.4
095C:  GOTO   095A
0960:  MOVWF  FAD
0962:  MOVF   41,W
0964:  BTFSS  F9E.4
0966:  GOTO   0964
096A:  MOVWF  FAD
096C:  MOVF   42,W
096E:  BTFSS  F9E.4
0970:  GOTO   096E
0974:  MOVWF  FAD
0976:  MOVLW  20
0978:  BTFSS  F9E.4
097A:  GOTO   0978
097E:  MOVWF  FAD
....................   
.................... //inverter  
.................... n1=a7/100;  
0980:  MOVFF  20,50
0984:  MOVLW  64
0986:  MOVWF  51
0988:  CALL   0140
098C:  MOVFF  01,40
.................... n2=a7/10;  
0990:  MOVFF  20,50
0994:  MOVLW  0A
0996:  MOVWF  51
0998:  CALL   0140
099C:  MOVFF  01,41
.................... n2=n2%10;  
09A0:  MOVFF  41,50
09A4:  MOVLW  0A
09A6:  MOVWF  51
09A8:  CALL   0140
09AC:  MOVFF  00,41
.................... n3=a7%10;  
09B0:  MOVFF  20,50
09B4:  MOVLW  0A
09B6:  MOVWF  51
09B8:  CALL   0140
09BC:  MOVFF  00,42
....................   
.................... n1=numb[n1];n2=numb[n2];n3=numb[n3];  
09C0:  CLRF   03
09C2:  MOVF   40,W
09C4:  ADDLW  36
09C6:  MOVWF  FE9
09C8:  MOVLW  00
09CA:  ADDWFC 03,W
09CC:  MOVWF  FEA
09CE:  MOVF   FEF,W
09D0:  MOVWF  40
09D2:  CLRF   03
09D4:  MOVF   41,W
09D6:  ADDLW  36
09D8:  MOVWF  FE9
09DA:  MOVLW  00
09DC:  ADDWFC 03,W
09DE:  MOVWF  FEA
09E0:  MOVF   FEF,W
09E2:  MOVWF  41
09E4:  CLRF   03
09E6:  MOVF   42,W
09E8:  ADDLW  36
09EA:  MOVWF  FE9
09EC:  MOVLW  00
09EE:  ADDWFC 03,W
09F0:  MOVWF  FEA
09F2:  MOVF   FEF,W
09F4:  MOVWF  42
.................... putc(n1);putc(n2);putc(n3);putc(':');  
09F6:  MOVF   40,W
09F8:  BTFSS  F9E.4
09FA:  GOTO   09F8
09FE:  MOVWF  FAD
0A00:  MOVF   41,W
0A02:  BTFSS  F9E.4
0A04:  GOTO   0A02
0A08:  MOVWF  FAD
0A0A:  MOVF   42,W
0A0C:  BTFSS  F9E.4
0A0E:  GOTO   0A0C
0A12:  MOVWF  FAD
0A14:  MOVLW  3A
0A16:  BTFSS  F9E.4
0A18:  GOTO   0A16
0A1C:  MOVWF  FAD
....................   
....................   
.................... a8=0b00111111 & port_b;  
0A1E:  MOVF   F81,W
0A20:  ANDLW  3F
0A22:  MOVWF  21
.................... putc(a8);  
0A24:  MOVF   21,W
0A26:  BTFSS  F9E.4
0A28:  GOTO   0A26
0A2C:  MOVWF  FAD
.................... putc(13);  
0A2E:  MOVLW  0D
0A30:  BTFSS  F9E.4
0A32:  GOTO   0A30
0A36:  MOVWF  FAD
.................... j=0;  
0A38:  CLRF   4B
.................... delay_ms(1000);  
0A3A:  MOVLW  04
0A3C:  MOVWF  50
0A3E:  MOVLW  FA
0A40:  MOVWF  51
0A42:  CALL   00B8
0A46:  DECFSZ 50,F
0A48:  BRA    0A3E
.................... }  
0A4A:  INCF   4E,F
0A4C:  BTFSC  FD8.2
0A4E:  INCF   4F,F
0A50:  GOTO   0220
.................... reset_cpu();  
0A54:  RESET
.................... }  
0A56:  GOTO   021C
.................... }  
....................  
0A5A:  SLEEP 

Configuration Fuses:
   Word  1: 2200   HS NOOSCSEN
   Word  2: 0E0F   BROWNOUT WDT128 NOWDT BORV20 NOPUT
   Word  3: 0100   CCP2C1
   Word  4: 0081   STVREN NODEBUG NOLVP
   Word  5: C00F   NOPROTECT NOCPD NOCPB
   Word  6: E00F   NOWRT NOWRTD NOWRTB NOWRTC
   Word  7: 400F   NOEBTR NOEBTRB
